ccopy_reg
_reconstructor
p0
(cgeometry_msgs.msg._PoseStamped
PoseStamped
p1
c__builtin__
object
p2
Ntp3
Rp4
(lp5
g0
(cstd_msgs.msg._Header
Header
p6
g2
Ntp7
Rp8
(lp9
I0
ag0
(crospy.rostime
Time
p10
g2
Ntp11
Rp12
(lp13
I1502988897
aI81549882
abaS'/base_link'
p14
abag0
(cgeometry_msgs.msg._Pose
Pose
p15
g2
Ntp16
Rp17
(lp18
g0
(cgeometry_msgs.msg._Point
Point
p19
g2
Ntp20
Rp21
(lp22
F0.31998935152061336
aF-0.05541273311447232
aF0.33506488361775266
abag0
(cgeometry_msgs.msg._Quaternion
Quaternion
p23
g2
Ntp24
Rp25
(lp26
F-0.7299593012289322
aF-0.30779765420654254
aF-0.4136458178471351
aF0.44868380847975214
ababab.